; Function Attrs: mustprogress nounwind uwtable
define hidden void @_ZN4LIEF5MachO14SegmentCommand11update_dataERKSt8functionIFvRSt6vectorIhSaIhEEEE(ptr noundef nonnull align 8 dereferenceable(216) %0, ptr noundef nonnull align 8 dereferenceable(32) %1) unnamed_addr #0 align 2 {
  %3 = getelementptr inbounds nuw i8, ptr %1, i64 16
  %4 = load ptr, ptr %3, align 8, !tbaa !105
  %.not.i.i = icmp eq ptr %4, null
  br i1 %.not.i.i, label %5, label %_ZNKSt8functionIFvRSt6vectorIhSaIhEEEEclES3_.exit

5:                                                ; preds = %2
  tail call void @_ZSt25__throw_bad_function_callv() #26
  unreachable

_ZNKSt8functionIFvRSt6vectorIhSaIhEEEEclES3_.exit: ; preds = %2
  %6 = getelementptr inbounds nuw i8, ptr %0, i64 144
  %7 = getelementptr inbounds nuw i8, ptr %1, i64 24
  %8 = load ptr, ptr %7, align 8, !tbaa !102
  tail call void %8(ptr noundef nonnull align 8 dereferenceable(32) %1, ptr noundef nonnull align 8 dereferenceable(24) %6) #24
  ret void
}